target datalayout = "e-m:e-p270:32:32-p271:32:32-p272:64:64-i64:64-i128:128-f80:128-n8:16:32:64-S128"
target triple = "x86_64-pc-linux-gnu"

%struct.crypto_ex_data_st = type { ptr, ptr }
%struct.x509_store_ctx_st = type { ptr, ptr, ptr, ptr, ptr, ptr, ptr, ptr, ptr, ptr, ptr, ptr, ptr, ptr, ptr, ptr, ptr, ptr, i32, i32, ptr, ptr, i32, i32, i32, ptr, ptr, ptr, i32, i32, ptr, %struct.crypto_ex_data_st, ptr, i32, ptr, ptr, ptr }

@.str = private unnamed_addr constant [34 x i8] c"../openssl/crypto/x509/x509_vfy.c\00", align 1

; Function Attrs: nounwind uwtable
define ptr @X509_STORE_CTX_new_ex(ptr noundef %0, ptr noundef %1) #0 {
  %3 = alloca ptr, align 8
  %4 = alloca ptr, align 8
  %5 = alloca ptr, align 8
  %6 = alloca ptr, align 8
  %7 = alloca i32, align 4
  store ptr %0, ptr %4, align 8, !tbaa !126
  store ptr %1, ptr %5, align 8, !tbaa !127
  call void @llvm.lifetime.start.p0(i64 8, ptr %6) #8
  %8 = call noalias ptr @CRYPTO_zalloc(i64 noundef 280, ptr noundef @.str, i32 noundef 2452)
  store ptr %8, ptr %6, align 8, !tbaa !40
  %9 = load ptr, ptr %6, align 8, !tbaa !40
  %10 = icmp eq ptr %9, null
  br i1 %10, label %11, label %12

11:                                               ; preds = %2
  store ptr null, ptr %3, align 8
  store i32 1, ptr %7, align 4
  br label %32

12:                                               ; preds = %2
  %13 = load ptr, ptr %4, align 8, !tbaa !126
  %14 = load ptr, ptr %6, align 8, !tbaa !40
  %15 = getelementptr inbounds nuw %struct.x509_store_ctx_st, ptr %14, i32 0, i32 35
  store ptr %13, ptr %15, align 8, !tbaa !128
  %16 = load ptr, ptr %5, align 8, !tbaa !127
  %17 = icmp ne ptr %16, null
  br i1 %17, label %18, label %30

18:                                               ; preds = %12
  %19 = load ptr, ptr %5, align 8, !tbaa !127
  %20 = call noalias ptr @CRYPTO_strdup(ptr noundef %19, ptr noundef @.str, i32 noundef 2459)
  %21 = load ptr, ptr %6, align 8, !tbaa !40
  %22 = getelementptr inbounds nuw %struct.x509_store_ctx_st, ptr %21, i32 0, i32 36
  store ptr %20, ptr %22, align 8, !tbaa !129
  %23 = load ptr, ptr %6, align 8, !tbaa !40
  %24 = getelementptr inbounds nuw %struct.x509_store_ctx_st, ptr %23, i32 0, i32 36
  %25 = load ptr, ptr %24, align 8, !tbaa !129
  %26 = icmp eq ptr %25, null
  br i1 %26, label %27, label %29

27:                                               ; preds = %18
  %28 = load ptr, ptr %6, align 8, !tbaa !40
  call void @CRYPTO_free(ptr noundef %28, ptr noundef @.str, i32 noundef 2461)
  store ptr null, ptr %3, align 8
  store i32 1, ptr %7, align 4
  br label %32

29:                                               ; preds = %18
  br label %30

30:                                               ; preds = %29, %12
  %31 = load ptr, ptr %6, align 8, !tbaa !40
  store ptr %31, ptr %3, align 8
  store i32 1, ptr %7, align 4
  br label %32

32:                                               ; preds = %30, %27, %11
  call void @llvm.lifetime.end.p0(i64 8, ptr %6) #8
  %33 = load ptr, ptr %3, align 8
  ret ptr %33
}